target datalayout = "e-m:e-p270:32:32-p271:32:32-p272:64:64-i64:64-i128:128-f80:128-n8:16:32:64-S128"
target triple = "x86_64-pc-linux-gnu"

%class.G1CMIsAliveClosure = type { %class.BoolObjectClosure, ptr }
%class.BoolObjectClosure = type { ptr }
%class.G1ConcurrentMark = type <{ ptr, ptr, %class.G1CMBitMap, %class.MemRegion, %class.G1CMRootMemRegions, %class.G1CMMarkStack, ptr, i32, i32, i32, [4 x i8], ptr, ptr, %class.TaskTerminator, %class.WorkerThreadsBarrierSync, %class.WorkerThreadsBarrierSync, i32, i8, i8, i8, i8, ptr, ptr, %class.NumberSeq, %class.NumberSeq, %class.NumberSeq, %class.NumberSeq, ptr, ptr, i32, i32, ptr, ptr, ptr, i8, [7 x i8] }>
%class.G1CMBitMap = type { %class.MarkBitMap, %class.G1CMBitMapMappingChangedListener }
%class.MarkBitMap = type { ptr, %class.MemRegion, i32, %class.BitMapView }
%class.BitMapView = type { %class.BitMap }
%class.BitMap = type { ptr, i64 }
%class.G1CMBitMapMappingChangedListener = type { %class.G1MappingChangedListener, ptr }
%class.G1MappingChangedListener = type { ptr }
%class.MemRegion = type { ptr, i64 }
%class.G1CMRootMemRegions = type <{ ptr, i64, i64, i64, i8, i8, [6 x i8] }>
%class.G1CMMarkStack = type { %"class.G1CMMarkStack::ChunkAllocator", [128 x i8], ptr, [120 x i8], ptr, i64, [112 x i8] }
%"class.G1CMMarkStack::ChunkAllocator" = type { i64, i64, i64, i64, i8, ptr, [128 x i8], i64, [120 x i8] }
%class.TaskTerminator = type { i32, ptr, [128 x i8], i32, [124 x i8], %class.Monitor, ptr }
%class.Monitor = type { %class.Mutex }
%class.Mutex = type { ptr, %class.PlatformMonitor, ptr }
%class.PlatformMonitor = type { %class.PlatformMutex, %union.pthread_cond_t }
%class.PlatformMutex = type { %union.pthread_mutex_t }
%union.pthread_mutex_t = type { %struct.__pthread_mutex_s }
%struct.__pthread_mutex_s = type { i32, i32, i32, i32, i32, i16, i16, %struct.__pthread_internal_list }
%struct.__pthread_internal_list = type { ptr, ptr }
%union.pthread_cond_t = type { %struct.__pthread_cond_s }
%struct.__pthread_cond_s = type { %union.__atomic_wide_counter, %union.__atomic_wide_counter, [2 x i32], [2 x i32], i32, i32, [2 x i32] }
%union.__atomic_wide_counter = type { i64 }
%class.WorkerThreadsBarrierSync = type <{ %class.Monitor, i32, i32, i8, i8, [6 x i8] }>
%class.NumberSeq = type { %class.AbsSeq, double, double }
%class.AbsSeq = type { ptr, i32, double, double, double, double, double }
%class.G1CMSubjectToDiscoveryClosure = type { %class.BoolObjectClosure, ptr }
%class.G1STWIsAliveClosure = type { %class.BoolObjectClosure, ptr }
%class.TimeInstant = type { %class.CompositeCounterRepresentation }
%class.CompositeCounterRepresentation = type { %class.Representation }
%class.Representation = type { %class.PairRep }
%class.PairRep = type { i64, i64 }
%class.G1CollectedHeap = type { %class.CollectedHeap, ptr, ptr, ptr, ptr, ptr, %class.TimeInstant, %class.G1HeapRegionSet, %class.G1HeapRegionSet, %class.G1MonotonicArenaMemoryStats, %class.G1MonotonicArenaMemoryStats, ptr, %class.G1RegionMappingChangedListener, ptr, %class.G1HeapRegionManager, ptr, %class.G1YoungGCAllocationFailureInjector, ptr, i64, i64, %class.G1EvacStats, %class.G1EvacStats, ptr, i32, i32, %class.G1CollectorState, i32, i32, %class.G1EdenRegions, %class.G1SurvivorRegions, ptr, ptr, ptr, ptr, %class.G1CollectionSet, ptr, %class.G1CardSetConfiguration, %class.G1MonotonicArenaFreePool, ptr, ptr, ptr, ptr, ptr, %class.G1STWIsAliveClosure, %class.G1STWSubjectToDiscoveryClosure, ptr, %class.G1CMIsAliveClosure, %class.G1CMSubjectToDiscoveryClosure, %class.G1HeapRegionAttrBiasedMappedArray }
%class.CollectedHeap = type { ptr, ptr, i64, i64, %class.SoftRefPolicy, %class.MemRegion, i8, i64, i32, i32, i32, i32, ptr, ptr }
%class.SoftRefPolicy = type { i8, i8 }
%class.G1HeapRegionSet = type { %class.G1HeapRegionSetBase.base, [7 x i8] }
%class.G1HeapRegionSetBase.base = type <{ ptr, ptr, i32, [4 x i8], ptr, i8 }>
%class.G1MonotonicArenaMemoryStats = type { [4 x i64], [4 x i64] }
%class.G1RegionMappingChangedListener = type { %class.G1MappingChangedListener }
%class.G1HeapRegionManager = type { ptr, ptr, %class.G1CommittedRegionMap, i32, [4 x i8], %class.G1HeapRegionTable, ptr, ptr, %class.G1FreeRegionList }
%class.G1CommittedRegionMap = type { ptr, %class.CHeapBitMap, %class.CHeapBitMap, i32, i32 }
%class.CHeapBitMap = type <{ %class.GrowableBitMap, i8, [7 x i8] }>
%class.GrowableBitMap = type { %class.BitMap }
%class.G1HeapRegionTable = type { %class.G1BiasedMappedArray.base, [4 x i8] }
%class.G1BiasedMappedArray.base = type { %class.G1BiasedMappedArrayBase.base }
%class.G1BiasedMappedArrayBase.base = type <{ ptr, ptr, ptr, i64, ptr, i64, i32 }>
%class.G1FreeRegionList = type { %class.G1HeapRegionSetBase.base, ptr, ptr, ptr, ptr }
%class.G1YoungGCAllocationFailureInjector = type { i8 }
%class.G1EvacStats = type { %class.PLABStats, i64, i64, %class.AdaptiveWeightedAverage, i64, i32, i64, i64, i64, i64, i64 }
%class.PLABStats = type { ptr, ptr, i64, i64, i64, i64 }
%class.AdaptiveWeightedAverage = type { float, i32, i32, i8, float }
%class.G1CollectorState = type { i8, i8, i8, i8, i8, i8, i8 }
%class.G1EdenRegions = type { i32, i64, %class.G1RegionsOnNodes }
%class.G1RegionsOnNodes = type { ptr, ptr }
%class.G1SurvivorRegions = type { ptr, i64, %class.G1RegionsOnNodes }
%class.G1CollectionSet = type { ptr, ptr, %class.G1CollectionSetCandidates, ptr, i32, i32, i32, i32, i32, %class.G1CollectionCandidateRegionList, i32, i64 }
%class.G1CollectionSetCandidates = type { [8 x i8], %class.G1CollectionCandidateList, %class.G1CollectionCandidateList, ptr, i32, i32 }
%class.G1CollectionCandidateList = type { %class.GrowableArray }
%class.GrowableArray = type { %class.GrowableArrayWithAllocator, %class.GrowableArrayMetadata }
%class.GrowableArrayWithAllocator = type { %class.GrowableArrayView }
%class.GrowableArrayView = type { %class.GrowableArrayBase, ptr }
%class.GrowableArrayBase = type { i32, i32 }
%class.GrowableArrayMetadata = type { i64 }
%class.G1CollectionCandidateRegionList = type { %class.GrowableArray.2 }
%class.GrowableArray.2 = type { %class.GrowableArrayWithAllocator.3, %class.GrowableArrayMetadata }
%class.GrowableArrayWithAllocator.3 = type { %class.GrowableArrayView.4 }
%class.GrowableArrayView.4 = type { %class.GrowableArrayBase, ptr }
%class.G1CardSetConfiguration = type { i32, i32, i32, i32, i32, i32, i32, i32, i32, i32, i32, ptr }
%class.G1MonotonicArenaFreePool = type { i32, ptr }
%class.G1STWSubjectToDiscoveryClosure = type { %class.BoolObjectClosure, ptr }
%class.G1HeapRegionAttrBiasedMappedArray = type { %class.G1BiasedMappedArray.base.6, [4 x i8] }
%class.G1BiasedMappedArray.base.6 = type { %class.G1BiasedMappedArrayBase.base }
%class.ReferenceProcessor = type { %class.ReferenceDiscoverer, ptr, i8, i8, i8, i32, ptr, ptr, i32, i32, ptr, ptr, ptr, ptr, ptr }
%class.ReferenceDiscoverer = type { ptr }
%class.SuspendibleThreadSetJoiner = type { i8 }
%class.BarrierEnqueueDiscoveredFieldClosure = type { %class.EnqueueDiscoveredFieldClosure }
%class.EnqueueDiscoveredFieldClosure = type { ptr }
%class.G1PrecleanYieldClosure = type { %class.YieldClosure, ptr }
%class.YieldClosure = type { ptr }
%class.ReferenceProcessorMTDiscoveryMutator = type <{ ptr, i8, [7 x i8] }>

@_ZTV36BarrierEnqueueDiscoveredFieldClosure = external unnamed_addr constant { [3 x ptr] }, align 8
@_ZTV29EnqueueDiscoveredFieldClosure = linkonce_odr hidden unnamed_addr constant { [3 x ptr] } { [3 x ptr] [ptr null, ptr null, ptr @__cxa_pure_virtual] }, comdat, align 8
@_ZTV22G1PrecleanYieldClosure = linkonce_odr hidden unnamed_addr constant { [4 x ptr] } { [4 x ptr] [ptr null, ptr null, ptr @_ZN22G1PrecleanYieldClosure13should_returnEv, ptr @_ZN22G1PrecleanYieldClosure24should_return_fine_grainEv] }, comdat, align 8
@_ZTV12YieldClosure = linkonce_odr hidden unnamed_addr constant { [4 x ptr] } { [4 x ptr] [ptr null, ptr null, ptr @__cxa_pure_virtual, ptr @_ZN12YieldClosure24should_return_fine_grainEv] }, comdat, align 8

; Function Attrs: mustprogress nounwind uwtable
define linkonce_odr hidden void @_ZN18ReferenceProcessor16set_mt_discoveryEb(ptr noundef nonnull align 8 dereferenceable(88) %0, i1 noundef zeroext %1) #1 comdat align 2 {
  %3 = alloca ptr, align 8
  %4 = alloca i8, align 1
  store ptr %0, ptr %3, align 8
  %5 = zext i1 %1 to i8
  store i8 %5, ptr %4, align 1
  %6 = load ptr, ptr %3, align 8
  %7 = load i8, ptr %4, align 1
  %8 = trunc i8 %7 to i1
  %9 = getelementptr inbounds %class.ReferenceProcessor, ptr %6, i32 0, i32 4
  %10 = zext i1 %8 to i8
  store i8 %10, ptr %9, align 2
  ret void
}

; Function Attrs: mustprogress nounwind uwtable
define linkonce_odr hidden noundef zeroext i1 @_ZNK18ReferenceProcessor15discovery_is_mtEv(ptr noundef nonnull align 8 dereferenceable(88) %0) #1 comdat align 2 {
  %2 = alloca ptr, align 8
  store ptr %0, ptr %2, align 8
  %3 = load ptr, ptr %2, align 8
  %4 = getelementptr inbounds %class.ReferenceProcessor, ptr %3, i32 0, i32 4
  %5 = load i8, ptr %4, align 2
  %6 = trunc i8 %5 to i1
  ret i1 %6
}

; Function Attrs: mustprogress nounwind uwtable
define linkonce_odr hidden void @_ZN12YieldClosureC2Ev(ptr noundef nonnull align 8 dereferenceable(8) %0) unnamed_addr #1 comdat align 2 {
  %2 = alloca ptr, align 8
  store ptr %0, ptr %2, align 8
  %3 = load ptr, ptr %2, align 8
  store ptr getelementptr inbounds inrange(-16, 16) ({ [4 x ptr] }, ptr @_ZTV12YieldClosure, i32 0, i32 0, i32 2), ptr %3, align 8
  ret void
}

; Function Attrs: mustprogress nounwind uwtable
define hidden void @_ZN16G1ConcurrentMark15set_concurrencyEj(ptr noundef nonnull align 8 dereferenceable(1849) %0, i32 noundef %1) #1 align 2 {
  %3 = alloca ptr, align 8
  %4 = alloca i32, align 4
  store ptr %0, ptr %3, align 8
  store i32 %1, ptr %4, align 4
  %5 = load ptr, ptr %3, align 8
  %6 = load i32, ptr %4, align 4
  %7 = getelementptr inbounds %class.G1ConcurrentMark, ptr %5, i32 0, i32 9
  store i32 %6, ptr %7, align 8
  %8 = getelementptr inbounds %class.G1ConcurrentMark, ptr %5, i32 0, i32 13
  %9 = load i32, ptr %4, align 4
  call void @_ZN14TaskTerminator15reset_for_reuseEj(ptr noundef nonnull align 8 dereferenceable(384) %8, i32 noundef %9)
  %10 = getelementptr inbounds %class.G1ConcurrentMark, ptr %5, i32 0, i32 14
  %11 = load i32, ptr %4, align 4
  call void @_ZN24WorkerThreadsBarrierSync13set_n_workersEj(ptr noundef nonnull align 8 dereferenceable(114) %10, i32 noundef %11)
  %12 = getelementptr inbounds %class.G1ConcurrentMark, ptr %5, i32 0, i32 15
  %13 = load i32, ptr %4, align 4
  call void @_ZN24WorkerThreadsBarrierSync13set_n_workersEj(ptr noundef nonnull align 8 dereferenceable(114) %12, i32 noundef %13)
  ret void
}

; Function Attrs: mustprogress nounwind uwtable
define linkonce_odr hidden void @_ZN29EnqueueDiscoveredFieldClosureC2Ev(ptr noundef nonnull align 8 dereferenceable(8) %0) unnamed_addr #1 comdat align 2 {
  %2 = alloca ptr, align 8
  store ptr %0, ptr %2, align 8
  %3 = load ptr, ptr %2, align 8
  store ptr getelementptr inbounds inrange(-16, 8) ({ [3 x ptr] }, ptr @_ZTV29EnqueueDiscoveredFieldClosure, i32 0, i32 0, i32 2), ptr %3, align 8
  ret void
}

; Function Attrs: mustprogress nounwind uwtable
define linkonce_odr hidden void @_ZN26SuspendibleThreadSetJoinerD2Ev(ptr noundef nonnull align 1 dereferenceable(1) %0) unnamed_addr #1 comdat align 2 {
  %2 = alloca ptr, align 8
  store ptr %0, ptr %2, align 8
  %3 = load ptr, ptr %2, align 8
  %4 = getelementptr inbounds %class.SuspendibleThreadSetJoiner, ptr %3, i32 0, i32 0
  %5 = load i8, ptr %4, align 1
  %6 = trunc i8 %5 to i1
  br i1 %6, label %7, label %8

7:                                                ; preds = %1
  call void @_ZN20SuspendibleThreadSet5leaveEv()
  br label %8

8:                                                ; preds = %7, %1
  ret void
}

; Function Attrs: mustprogress nounwind uwtable
define linkonce_odr hidden void @_ZN36ReferenceProcessorMTDiscoveryMutatorD2Ev(ptr noundef nonnull align 8 dereferenceable(9) %0) unnamed_addr #1 comdat align 2 {
  %2 = alloca ptr, align 8
  store ptr %0, ptr %2, align 8
  %3 = load ptr, ptr %2, align 8
  %4 = getelementptr inbounds %class.ReferenceProcessorMTDiscoveryMutator, ptr %3, i32 0, i32 0
  %5 = load ptr, ptr %4, align 8
  %6 = getelementptr inbounds %class.ReferenceProcessorMTDiscoveryMutator, ptr %3, i32 0, i32 1
  %7 = load i8, ptr %6, align 8
  %8 = trunc i8 %7 to i1
  call void @_ZN18ReferenceProcessor16set_mt_discoveryEb(ptr noundef nonnull align 8 dereferenceable(88) %5, i1 noundef zeroext %8)
  ret void
}

; Function Attrs: mustprogress nounwind uwtable
define linkonce_odr hidden noundef ptr @_ZN18ReferenceProcessor19is_alive_non_headerEv(ptr noundef nonnull align 8 dereferenceable(88) %0) #1 comdat align 2 {
  %2 = alloca ptr, align 8
  store ptr %0, ptr %2, align 8
  %3 = load ptr, ptr %2, align 8
  %4 = getelementptr inbounds %class.ReferenceProcessor, ptr %3, i32 0, i32 6
  %5 = load ptr, ptr %4, align 8
  ret ptr %5
}

; Function Attrs: mustprogress nounwind uwtable
define linkonce_odr hidden void @_ZN36ReferenceProcessorMTDiscoveryMutatorC2EP18ReferenceProcessorb(ptr noundef nonnull align 8 dereferenceable(9) %0, ptr noundef %1, i1 noundef zeroext %2) unnamed_addr #1 comdat align 2 {
  %4 = alloca ptr, align 8
  %5 = alloca ptr, align 8
  %6 = alloca i8, align 1
  store ptr %0, ptr %4, align 8
  store ptr %1, ptr %5, align 8
  %7 = zext i1 %2 to i8
  store i8 %7, ptr %6, align 1
  %8 = load ptr, ptr %4, align 8
  %9 = getelementptr inbounds %class.ReferenceProcessorMTDiscoveryMutator, ptr %8, i32 0, i32 0
  %10 = load ptr, ptr %5, align 8
  store ptr %10, ptr %9, align 8
  %11 = getelementptr inbounds %class.ReferenceProcessorMTDiscoveryMutator, ptr %8, i32 0, i32 0
  %12 = load ptr, ptr %11, align 8
  %13 = call noundef zeroext i1 @_ZNK18ReferenceProcessor15discovery_is_mtEv(ptr noundef nonnull align 8 dereferenceable(88) %12)
  %14 = getelementptr inbounds %class.ReferenceProcessorMTDiscoveryMutator, ptr %8, i32 0, i32 1
  %15 = zext i1 %13 to i8
  store i8 %15, ptr %14, align 8
  %16 = getelementptr inbounds %class.ReferenceProcessorMTDiscoveryMutator, ptr %8, i32 0, i32 0
  %17 = load ptr, ptr %16, align 8
  %18 = load i8, ptr %6, align 1
  %19 = trunc i8 %18 to i1
  call void @_ZN18ReferenceProcessor16set_mt_discoveryEb(ptr noundef nonnull align 8 dereferenceable(88) %17, i1 noundef zeroext %19)
  ret void
}

; Function Attrs: mustprogress nounwind uwtable
define linkonce_odr hidden noundef ptr @_ZNK15G1CollectedHeap16ref_processor_cmEv(ptr noundef nonnull align 8 dereferenceable(1488) %0) #1 comdat align 2 {
  %2 = alloca ptr, align 8
  store ptr %0, ptr %2, align 8
  %3 = load ptr, ptr %2, align 8
  %4 = getelementptr inbounds %class.G1CollectedHeap, ptr %3, i32 0, i32 45
  %5 = load ptr, ptr %4, align 8
  ret ptr %5
}

; Function Attrs: mustprogress nounwind uwtable
define linkonce_odr hidden void @_ZN22G1PrecleanYieldClosureC2EP16G1ConcurrentMark(ptr noundef nonnull align 8 dereferenceable(16) %0, ptr noundef %1) unnamed_addr #1 comdat align 2 {
  %3 = alloca ptr, align 8
  %4 = alloca ptr, align 8
  store ptr %0, ptr %3, align 8
  store ptr %1, ptr %4, align 8
  %5 = load ptr, ptr %3, align 8
  call void @_ZN12YieldClosureC2Ev(ptr noundef nonnull align 8 dereferenceable(8) %5) #11
  store ptr getelementptr inbounds inrange(-16, 16) ({ [4 x ptr] }, ptr @_ZTV22G1PrecleanYieldClosure, i32 0, i32 0, i32 2), ptr %5, align 8
  %6 = getelementptr inbounds %class.G1PrecleanYieldClosure, ptr %5, i32 0, i32 1
  %7 = load ptr, ptr %4, align 8
  store ptr %7, ptr %6, align 8
  ret void
}

; Function Attrs: mustprogress nounwind uwtable
define hidden void @_ZN16G1ConcurrentMark25set_concurrency_and_phaseEjb(ptr noundef nonnull align 8 dereferenceable(1849) %0, i32 noundef %1, i1 noundef zeroext %2) #1 align 2 {
  %4 = alloca ptr, align 8
  %5 = alloca i32, align 4
  %6 = alloca i8, align 1
  store ptr %0, ptr %4, align 8
  store i32 %1, ptr %5, align 4
  %7 = zext i1 %2 to i8
  store i8 %7, ptr %6, align 1
  %8 = load ptr, ptr %4, align 8
  %9 = load i32, ptr %5, align 4
  call void @_ZN16G1ConcurrentMark15set_concurrencyEj(ptr noundef nonnull align 8 dereferenceable(1849) %8, i32 noundef %9)
  %10 = load i8, ptr %6, align 1
  %11 = trunc i8 %10 to i1
  %12 = getelementptr inbounds %class.G1ConcurrentMark, ptr %8, i32 0, i32 18
  %13 = zext i1 %11 to i8
  store volatile i8 %13, ptr %12, align 1
  %14 = load i8, ptr %6, align 1
  %15 = trunc i8 %14 to i1
  br i1 %15, label %19, label %16

16:                                               ; preds = %3
  br label %17

17:                                               ; preds = %16
  br label %18

18:                                               ; preds = %17
  br label %19

19:                                               ; preds = %18, %3
  ret void
}

; Function Attrs: mustprogress nounwind uwtable
define linkonce_odr hidden void @_ZN36BarrierEnqueueDiscoveredFieldClosureC2Ev(ptr noundef nonnull align 8 dereferenceable(8) %0) unnamed_addr #1 comdat align 2 {
  %2 = alloca ptr, align 8
  store ptr %0, ptr %2, align 8
  %3 = load ptr, ptr %2, align 8
  call void @_ZN29EnqueueDiscoveredFieldClosureC2Ev(ptr noundef nonnull align 8 dereferenceable(8) %3) #11
  store ptr getelementptr inbounds inrange(-16, 8) ({ [3 x ptr] }, ptr @_ZTV36BarrierEnqueueDiscoveredFieldClosure, i32 0, i32 0, i32 2), ptr %3, align 8
  ret void
}

; Function Attrs: mustprogress nounwind uwtable
define linkonce_odr hidden void @_ZN26SuspendibleThreadSetJoinerC2Eb(ptr noundef nonnull align 1 dereferenceable(1) %0, i1 noundef zeroext %1) unnamed_addr #1 comdat align 2 {
  %3 = alloca ptr, align 8
  %4 = alloca i8, align 1
  store ptr %0, ptr %3, align 8
  %5 = zext i1 %1 to i8
  store i8 %5, ptr %4, align 1
  %6 = load ptr, ptr %3, align 8
  %7 = getelementptr inbounds %class.SuspendibleThreadSetJoiner, ptr %6, i32 0, i32 0
  %8 = load i8, ptr %4, align 1
  %9 = trunc i8 %8 to i1
  %10 = zext i1 %9 to i8
  store i8 %10, ptr %7, align 1
  %11 = getelementptr inbounds %class.SuspendibleThreadSetJoiner, ptr %6, i32 0, i32 0
  %12 = load i8, ptr %11, align 1
  %13 = trunc i8 %12 to i1
  br i1 %13, label %14, label %15

14:                                               ; preds = %2
  call void @_ZN20SuspendibleThreadSet4joinEv()
  br label %15

15:                                               ; preds = %14, %2
  ret void
}

; Function Attrs: mustprogress nounwind uwtable
define hidden void @_ZN16G1ConcurrentMark8precleanEv(ptr noundef nonnull align 8 dereferenceable(1849) %0) #1 align 2 {
  %2 = alloca ptr, align 8
  %3 = alloca %class.SuspendibleThreadSetJoiner, align 1
  %4 = alloca %class.BarrierEnqueueDiscoveredFieldClosure, align 8
  %5 = alloca %class.G1PrecleanYieldClosure, align 8
  %6 = alloca ptr, align 8
  %7 = alloca %class.ReferenceProcessorMTDiscoveryMutator, align 8
  store ptr %0, ptr %2, align 8
  %8 = load ptr, ptr %2, align 8
  call void @_ZN26SuspendibleThreadSetJoinerC2Eb(ptr noundef nonnull align 1 dereferenceable(1) %3, i1 noundef zeroext true)
  call void @_ZN36BarrierEnqueueDiscoveredFieldClosureC2Ev(ptr noundef nonnull align 8 dereferenceable(8) %4) #11
  call void @_ZN16G1ConcurrentMark25set_concurrency_and_phaseEjb(ptr noundef nonnull align 8 dereferenceable(1849) %8, i32 noundef 1, i1 noundef zeroext true)
  call void @_ZN22G1PrecleanYieldClosureC2EP16G1ConcurrentMark(ptr noundef nonnull align 8 dereferenceable(16) %5, ptr noundef %8)
  %9 = getelementptr inbounds %class.G1ConcurrentMark, ptr %8, i32 0, i32 1
  %10 = load ptr, ptr %9, align 8
  %11 = call noundef ptr @_ZNK15G1CollectedHeap16ref_processor_cmEv(ptr noundef nonnull align 8 dereferenceable(1488) %10)
  store ptr %11, ptr %6, align 8
  %12 = load ptr, ptr %6, align 8
  call void @_ZN36ReferenceProcessorMTDiscoveryMutatorC2EP18ReferenceProcessorb(ptr noundef nonnull align 8 dereferenceable(9) %7, ptr noundef %12, i1 noundef zeroext false)
  %13 = load ptr, ptr %6, align 8
  %14 = load ptr, ptr %6, align 8
  %15 = call noundef ptr @_ZN18ReferenceProcessor19is_alive_non_headerEv(ptr noundef nonnull align 8 dereferenceable(88) %14)
  %16 = getelementptr inbounds %class.G1ConcurrentMark, ptr %8, i32 0, i32 21
  %17 = load ptr, ptr %16, align 8
  call void @_ZN18ReferenceProcessor30preclean_discovered_referencesEP17BoolObjectClosureP29EnqueueDiscoveredFieldClosureP12YieldClosureP7GCTimer(ptr noundef nonnull align 8 dereferenceable(88) %13, ptr noundef %15, ptr noundef %4, ptr noundef %5, ptr noundef %17)
  call void @_ZN36ReferenceProcessorMTDiscoveryMutatorD2Ev(ptr noundef nonnull align 8 dereferenceable(9) %7) #11
  call void @_ZN26SuspendibleThreadSetJoinerD2Ev(ptr noundef nonnull align 1 dereferenceable(1) %3) #11
  ret void
}