; Function Attrs: mustprogress nounwind uwtable
define hidden void @_ZN16G1ConcurrentMark8precleanEv(ptr noundef nonnull align 8 dereferenceable(1849) %0) local_unnamed_addr #0 align 2 {
_ZN26SuspendibleThreadSetJoinerD2Ev.exit:
  %1 = alloca %class.BarrierEnqueueDiscoveredFieldClosure, align 8
  %2 = alloca %class.G1PrecleanYieldClosure, align 8
  tail call void @_ZN20SuspendibleThreadSet4joinEv() #22
  store ptr getelementptr inbounds inrange(-16, 8) (i8, ptr @_ZTV36BarrierEnqueueDiscoveredFieldClosure, i64 16), ptr %1, align 8
  %3 = getelementptr inbounds i8, ptr %0, i64 840
  store i32 1, ptr %3, align 8
  %4 = getelementptr inbounds i8, ptr %0, i64 864
  tail call void @_ZN14TaskTerminator15reset_for_reuseEj(ptr noundef nonnull align 8 dereferenceable(384) %4, i32 noundef 1) #22
  %5 = getelementptr inbounds i8, ptr %0, i64 1248
  tail call void @_ZN24WorkerThreadsBarrierSync13set_n_workersEj(ptr noundef nonnull align 8 dereferenceable(114) %5, i32 noundef 1) #22
  %6 = getelementptr inbounds i8, ptr %0, i64 1368
  tail call void @_ZN24WorkerThreadsBarrierSync13set_n_workersEj(ptr noundef nonnull align 8 dereferenceable(114) %6, i32 noundef 1) #22
  %7 = getelementptr inbounds i8, ptr %0, i64 1493
  store volatile i8 1, ptr %7, align 1
  store ptr getelementptr inbounds inrange(-16, 16) (i8, ptr @_ZTV22G1PrecleanYieldClosure, i64 16), ptr %2, align 8
  %8 = getelementptr inbounds i8, ptr %2, i64 8
  store ptr %0, ptr %8, align 8
  %9 = getelementptr inbounds i8, ptr %0, i64 8
  %10 = load ptr, ptr %9, align 8
  %11 = getelementptr inbounds i8, ptr %10, i64 1392
  %12 = load ptr, ptr %11, align 8
  %13 = getelementptr inbounds i8, ptr %12, i64 18
  %14 = load i8, ptr %13, align 2
  %15 = and i8 %14, 1
  store i8 0, ptr %13, align 2
  %16 = getelementptr inbounds i8, ptr %12, i64 24
  %17 = load ptr, ptr %16, align 8
  %18 = getelementptr inbounds i8, ptr %0, i64 1496
  %19 = load ptr, ptr %18, align 8
  call void @_ZN18ReferenceProcessor30preclean_discovered_referencesEP17BoolObjectClosureP29EnqueueDiscoveredFieldClosureP12YieldClosureP7GCTimer(ptr noundef nonnull align 8 dereferenceable(88) %12, ptr noundef %17, ptr noundef nonnull %1, ptr noundef nonnull %2, ptr noundef %19) #22
  store i8 %15, ptr %13, align 2
  call void @_ZN20SuspendibleThreadSet5leaveEv() #22
  ret void
}